; Function Attrs: mustprogress nounwind uwtable
define hidden void @_ZN6Assimp4Ogre8SkeletonD2Ev(ptr noundef nonnull align 8 captures(none) dereferenceable(52) %0) unnamed_addr #6 align 2 personality ptr @__gxx_personality_v0 {
  tail call void @_ZN6Assimp4Ogre8Skeleton5ResetEv(ptr noundef nonnull align 8 dereferenceable(52) %0)
  %2 = getelementptr inbounds nuw i8, ptr %0, i64 24
  %3 = load ptr, ptr %2, align 8
  %.not.i.i.i = icmp eq ptr %3, null
  br i1 %.not.i.i.i, label %_ZNSt6vectorIPN6Assimp4Ogre9AnimationESaIS3_EED2Ev.exit, label %4

4:                                                ; preds = %1
  %5 = getelementptr inbounds nuw i8, ptr %0, i64 40
  %6 = load ptr, ptr %5, align 8
  %7 = ptrtoint ptr %6 to i64
  %8 = ptrtoint ptr %3 to i64
  %9 = sub i64 %7, %8
  tail call void @_ZdlPvm(ptr noundef nonnull %3, i64 noundef %9) #34
  br label %_ZNSt6vectorIPN6Assimp4Ogre9AnimationESaIS3_EED2Ev.exit

_ZNSt6vectorIPN6Assimp4Ogre9AnimationESaIS3_EED2Ev.exit: ; preds = %1, %4
  %10 = load ptr, ptr %0, align 8
  %.not.i.i.i1 = icmp eq ptr %10, null
  br i1 %.not.i.i.i1, label %_ZNSt6vectorIPN6Assimp4Ogre4BoneESaIS3_EED2Ev.exit, label %11

11:                                               ; preds = %_ZNSt6vectorIPN6Assimp4Ogre9AnimationESaIS3_EED2Ev.exit
  %12 = getelementptr inbounds nuw i8, ptr %0, i64 16
  %13 = load ptr, ptr %12, align 8
  %14 = ptrtoint ptr %13 to i64
  %15 = ptrtoint ptr %10 to i64
  %16 = sub i64 %14, %15
  tail call void @_ZdlPvm(ptr noundef nonnull %10, i64 noundef %16) #34
  br label %_ZNSt6vectorIPN6Assimp4Ogre4BoneESaIS3_EED2Ev.exit

_ZNSt6vectorIPN6Assimp4Ogre4BoneESaIS3_EED2Ev.exit: ; preds = %_ZNSt6vectorIPN6Assimp4Ogre9AnimationESaIS3_EED2Ev.exit, %11
  ret void
}